target datalayout = "e-m:e-p270:32:32-p271:32:32-p272:64:64-i64:64-i128:128-f80:128-n8:16:32:64-S128"
target triple = "x86_64-unknown-linux-gnu"

%"class.node::crypto::NodeBIO" = type { %"class.node::MemoryRetainer", ptr, i64, i64, i64, i32, ptr, ptr }
%"class.node::MemoryRetainer" = type { ptr }
%"class.node::crypto::NodeBIO::Buffer" = type { ptr, i64, i64, i64, ptr, ptr }

; Function Attrs: mustprogress nounwind uwtable
define dso_local noundef i64 @_ZN4node6crypto7NodeBIO12PeekMultipleEPPcPmS4_(ptr noundef nonnull align 8 dereferenceable(64) %this, ptr noundef %out, ptr noundef %size, ptr noundef %count) #4 align 2 {
entry:
  %this.addr = alloca ptr, align 8
  %out.addr = alloca ptr, align 8
  %size.addr = alloca ptr, align 8
  %count.addr = alloca ptr, align 8
  %pos = alloca ptr, align 8
  %max = alloca i64, align 8
  %total = alloca i64, align 8
  %i = alloca i64, align 8
  store ptr %this, ptr %this.addr, align 8
  store ptr %out, ptr %out.addr, align 8
  store ptr %size, ptr %size.addr, align 8
  store ptr %count, ptr %count.addr, align 8
  %this1 = load ptr, ptr %this.addr, align 8
  %read_head_ = getelementptr inbounds %"class.node::crypto::NodeBIO", ptr %this1, i32 0, i32 6
  %0 = load ptr, ptr %read_head_, align 8
  store ptr %0, ptr %pos, align 8
  %1 = load ptr, ptr %count.addr, align 8
  %2 = load i64, ptr %1, align 8
  store i64 %2, ptr %max, align 8
  store i64 0, ptr %total, align 8
  store i64 0, ptr %i, align 8
  br label %for.cond

for.cond:                                         ; preds = %for.inc, %entry
  %3 = load i64, ptr %i, align 8
  %4 = load i64, ptr %max, align 8
  %cmp = icmp ult i64 %3, %4
  br i1 %cmp, label %for.body, label %for.end

for.body:                                         ; preds = %for.cond
  %5 = load ptr, ptr %pos, align 8
  %write_pos_ = getelementptr inbounds %"class.node::crypto::NodeBIO::Buffer", ptr %5, i32 0, i32 2
  %6 = load i64, ptr %write_pos_, align 8
  %7 = load ptr, ptr %pos, align 8
  %read_pos_ = getelementptr inbounds %"class.node::crypto::NodeBIO::Buffer", ptr %7, i32 0, i32 1
  %8 = load i64, ptr %read_pos_, align 8
  %sub = sub i64 %6, %8
  %9 = load ptr, ptr %size.addr, align 8
  %10 = load i64, ptr %i, align 8
  %arrayidx = getelementptr inbounds i64, ptr %9, i64 %10
  store i64 %sub, ptr %arrayidx, align 8
  %11 = load ptr, ptr %size.addr, align 8
  %12 = load i64, ptr %i, align 8
  %arrayidx2 = getelementptr inbounds i64, ptr %11, i64 %12
  %13 = load i64, ptr %arrayidx2, align 8
  %14 = load i64, ptr %total, align 8
  %add = add i64 %14, %13
  store i64 %add, ptr %total, align 8
  %15 = load ptr, ptr %pos, align 8
  %data_ = getelementptr inbounds %"class.node::crypto::NodeBIO::Buffer", ptr %15, i32 0, i32 5
  %16 = load ptr, ptr %data_, align 8
  %17 = load ptr, ptr %pos, align 8
  %read_pos_3 = getelementptr inbounds %"class.node::crypto::NodeBIO::Buffer", ptr %17, i32 0, i32 1
  %18 = load i64, ptr %read_pos_3, align 8
  %add.ptr = getelementptr inbounds i8, ptr %16, i64 %18
  %19 = load ptr, ptr %out.addr, align 8
  %20 = load i64, ptr %i, align 8
  %arrayidx4 = getelementptr inbounds ptr, ptr %19, i64 %20
  store ptr %add.ptr, ptr %arrayidx4, align 8
  %21 = load ptr, ptr %pos, align 8
  %write_head_ = getelementptr inbounds %"class.node::crypto::NodeBIO", ptr %this1, i32 0, i32 7
  %22 = load ptr, ptr %write_head_, align 8
  %cmp5 = icmp eq ptr %21, %22
  br i1 %cmp5, label %if.then, label %if.else

if.then:                                          ; preds = %for.body
  br label %for.end

if.else:                                          ; preds = %for.body
  %23 = load ptr, ptr %pos, align 8
  %next_ = getelementptr inbounds %"class.node::crypto::NodeBIO::Buffer", ptr %23, i32 0, i32 4
  %24 = load ptr, ptr %next_, align 8
  store ptr %24, ptr %pos, align 8
  br label %if.end

if.end:                                           ; preds = %if.else
  br label %for.inc

for.inc:                                          ; preds = %if.end
  %25 = load i64, ptr %i, align 8
  %inc = add i64 %25, 1
  store i64 %inc, ptr %i, align 8
  br label %for.cond, !llvm.loop !8

for.end:                                          ; preds = %if.then, %for.cond
  %26 = load i64, ptr %i, align 8
  %27 = load i64, ptr %max, align 8
  %cmp6 = icmp eq i64 %26, %27
  br i1 %cmp6, label %if.then7, label %if.else8

if.then7:                                         ; preds = %for.end
  %28 = load i64, ptr %i, align 8
  %29 = load ptr, ptr %count.addr, align 8
  store i64 %28, ptr %29, align 8
  br label %if.end10

if.else8:                                         ; preds = %for.end
  %30 = load i64, ptr %i, align 8
  %add9 = add i64 %30, 1
  %31 = load ptr, ptr %count.addr, align 8
  store i64 %add9, ptr %31, align 8
  br label %if.end10

if.end10:                                         ; preds = %if.else8, %if.then7
  %32 = load i64, ptr %total, align 8
  ret i64 %32
}