; Function Attrs: mustprogress nofree norecurse nosync nounwind memory(read, argmem: readwrite, inaccessiblemem: none) uwtable
define dso_local noundef i64 @_ZN4node6crypto7NodeBIO12PeekMultipleEPPcPmS4_(ptr nocapture noundef nonnull readonly align 8 dereferenceable(64) %this, ptr nocapture noundef writeonly %out, ptr nocapture noundef writeonly %size, ptr nocapture noundef %count) local_unnamed_addr #7 align 2 {
entry:
  %0 = load i64, ptr %count, align 8
  %cmp19.not = icmp eq i64 %0, 0
  br i1 %cmp19.not, label %for.end, label %for.body.lr.ph

for.body.lr.ph:                                   ; preds = %entry
  %read_head_ = getelementptr inbounds i8, ptr %this, i64 48
  %write_head_ = getelementptr inbounds i8, ptr %this, i64 56
  br label %for.body

for.body:                                         ; preds = %for.body.lr.ph, %if.else
  %pos.022.in = phi ptr [ %read_head_, %for.body.lr.ph ], [ %next_, %if.else ]
  %i.021 = phi i64 [ 0, %for.body.lr.ph ], [ %inc, %if.else ]
  %total.020 = phi i64 [ 0, %for.body.lr.ph ], [ %add, %if.else ]
  %pos.022 = load ptr, ptr %pos.022.in, align 8
  %write_pos_ = getelementptr inbounds i8, ptr %pos.022, i64 16
  %1 = load i64, ptr %write_pos_, align 8
  %read_pos_ = getelementptr inbounds i8, ptr %pos.022, i64 8
  %2 = load i64, ptr %read_pos_, align 8
  %sub = sub i64 %1, %2
  %arrayidx = getelementptr inbounds i64, ptr %size, i64 %i.021
  store i64 %sub, ptr %arrayidx, align 8
  %add = add i64 %sub, %total.020
  %data_ = getelementptr inbounds i8, ptr %pos.022, i64 40
  %3 = load ptr, ptr %data_, align 8
  %4 = load i64, ptr %read_pos_, align 8
  %add.ptr = getelementptr inbounds i8, ptr %3, i64 %4
  %arrayidx4 = getelementptr inbounds ptr, ptr %out, i64 %i.021
  store ptr %add.ptr, ptr %arrayidx4, align 8
  %5 = load ptr, ptr %write_head_, align 8
  %cmp5 = icmp eq ptr %pos.022, %5
  br i1 %cmp5, label %for.end, label %if.else

if.else:                                          ; preds = %for.body
  %next_ = getelementptr inbounds i8, ptr %pos.022, i64 32
  %inc = add nuw i64 %i.021, 1
  %exitcond.not = icmp eq i64 %inc, %0
  br i1 %exitcond.not, label %for.end, label %for.body, !llvm.loop !9

for.end:                                          ; preds = %if.else, %for.body, %entry
  %i.0.lcssa = phi i64 [ 0, %entry ], [ %i.021, %for.body ], [ %0, %if.else ]
  %total.1 = phi i64 [ 0, %entry ], [ %add, %for.body ], [ %add, %if.else ]
  %cmp6 = icmp ne i64 %i.0.lcssa, %0
  %add9 = zext i1 %cmp6 to i64
  %storemerge = add i64 %i.0.lcssa, %add9
  store i64 %storemerge, ptr %count, align 8
  ret i64 %total.1
}